target datalayout = "e-m:e-p270:32:32-p271:32:32-p272:64:64-i64:64-i128:128-f80:128-n8:16:32:64-S128"
target triple = "x86_64-unknown-linux-gnu"

@stderr = external global ptr, align 8
@.str.14 = private unnamed_addr constant [25 x i8] c"Incomplete URI encoding\0A\00", align 1
@.str.15 = private unnamed_addr constant [35 x i8] c"Illegal character in URI encoding\0A\00", align 1

; Function Attrs: nounwind uwtable
define internal ptr @percentDecode(ptr noundef %pe, i64 noundef %len) #0 {
entry:
  %pe.addr = alloca ptr, align 8
  %len.addr = alloca i64, align 8
  %end = alloca ptr, align 8
  %ret = alloca ptr, align 8
  %curr = alloca ptr, align 8
  %h = alloca i8, align 1
  %l = alloca i8, align 1
  %c = alloca i8, align 1
  store ptr %pe, ptr %pe.addr, align 8
  store i64 %len, ptr %len.addr, align 8
  %0 = load ptr, ptr %pe.addr, align 8
  %1 = load i64, ptr %len.addr, align 8
  %add.ptr = getelementptr inbounds i8, ptr %0, i64 %1
  store ptr %add.ptr, ptr %end, align 8
  %call = call ptr @hi_sdsempty()
  store ptr %call, ptr %ret, align 8
  %2 = load ptr, ptr %pe.addr, align 8
  store ptr %2, ptr %curr, align 8
  br label %while.cond

while.cond:                                       ; preds = %if.end74, %entry
  %3 = load ptr, ptr %curr, align 8
  %4 = load ptr, ptr %end, align 8
  %cmp = icmp ult ptr %3, %4
  br i1 %cmp, label %while.body, label %while.end

while.body:                                       ; preds = %while.cond
  %5 = load ptr, ptr %curr, align 8
  %6 = load i8, ptr %5, align 1
  %conv = sext i8 %6 to i32
  %cmp1 = icmp eq i32 %conv, 37
  br i1 %cmp1, label %if.then, label %if.else

if.then:                                          ; preds = %while.body
  %7 = load ptr, ptr %end, align 8
  %8 = load ptr, ptr %curr, align 8
  %sub.ptr.lhs.cast = ptrtoint ptr %7 to i64
  %sub.ptr.rhs.cast = ptrtoint ptr %8 to i64
  %sub.ptr.sub = sub i64 %sub.ptr.lhs.cast, %sub.ptr.rhs.cast
  %cmp3 = icmp slt i64 %sub.ptr.sub, 2
  br i1 %cmp3, label %if.then5, label %if.end

if.then5:                                         ; preds = %if.then
  %9 = load ptr, ptr @stderr, align 8
  %call6 = call i32 (ptr, ptr, ...) @fprintf(ptr noundef %9, ptr noundef @.str.14) #7
  call void @exit(i32 noundef 1) #8
  unreachable

if.end:                                           ; preds = %if.then
  %10 = load ptr, ptr %curr, align 8
  %incdec.ptr = getelementptr inbounds i8, ptr %10, i32 1
  store ptr %incdec.ptr, ptr %curr, align 8
  %11 = load i8, ptr %incdec.ptr, align 1
  %conv7 = sext i8 %11 to i32
  %call8 = call i32 @tolower(i32 noundef %conv7) #9
  %conv9 = trunc i32 %call8 to i8
  store i8 %conv9, ptr %h, align 1
  %12 = load ptr, ptr %curr, align 8
  %incdec.ptr10 = getelementptr inbounds i8, ptr %12, i32 1
  store ptr %incdec.ptr10, ptr %curr, align 8
  %13 = load i8, ptr %incdec.ptr10, align 1
  %conv11 = sext i8 %13 to i32
  %call12 = call i32 @tolower(i32 noundef %conv11) #9
  %conv13 = trunc i32 %call12 to i8
  store i8 %conv13, ptr %l, align 1
  %call14 = call ptr @__ctype_b_loc() #6
  %14 = load ptr, ptr %call14, align 8
  %15 = load i8, ptr %h, align 1
  %conv15 = sext i8 %15 to i32
  %idxprom = sext i32 %conv15 to i64
  %arrayidx = getelementptr inbounds i16, ptr %14, i64 %idxprom
  %16 = load i16, ptr %arrayidx, align 2
  %conv16 = zext i16 %16 to i32
  %and = and i32 %conv16, 2048
  %tobool = icmp ne i32 %and, 0
  br i1 %tobool, label %lor.lhs.false23, label %lor.lhs.false

lor.lhs.false:                                    ; preds = %if.end
  %17 = load i8, ptr %h, align 1
  %conv17 = sext i8 %17 to i32
  %cmp18 = icmp sge i32 %conv17, 97
  br i1 %cmp18, label %land.lhs.true, label %if.then39

land.lhs.true:                                    ; preds = %lor.lhs.false
  %18 = load i8, ptr %h, align 1
  %conv20 = sext i8 %18 to i32
  %cmp21 = icmp sle i32 %conv20, 102
  br i1 %cmp21, label %lor.lhs.false23, label %if.then39

lor.lhs.false23:                                  ; preds = %land.lhs.true, %if.end
  %call24 = call ptr @__ctype_b_loc() #6
  %19 = load ptr, ptr %call24, align 8
  %20 = load i8, ptr %l, align 1
  %conv25 = sext i8 %20 to i32
  %idxprom26 = sext i32 %conv25 to i64
  %arrayidx27 = getelementptr inbounds i16, ptr %19, i64 %idxprom26
  %21 = load i16, ptr %arrayidx27, align 2
  %conv28 = zext i16 %21 to i32
  %and29 = and i32 %conv28, 2048
  %tobool30 = icmp ne i32 %and29, 0
  br i1 %tobool30, label %if.end41, label %lor.lhs.false31

lor.lhs.false31:                                  ; preds = %lor.lhs.false23
  %22 = load i8, ptr %l, align 1
  %conv32 = sext i8 %22 to i32
  %cmp33 = icmp sge i32 %conv32, 97
  br i1 %cmp33, label %land.lhs.true35, label %if.then39

land.lhs.true35:                                  ; preds = %lor.lhs.false31
  %23 = load i8, ptr %l, align 1
  %conv36 = sext i8 %23 to i32
  %cmp37 = icmp sle i32 %conv36, 102
  br i1 %cmp37, label %if.end41, label %if.then39

if.then39:                                        ; preds = %land.lhs.true35, %lor.lhs.false31, %land.lhs.true, %lor.lhs.false
  %24 = load ptr, ptr @stderr, align 8
  %call40 = call i32 (ptr, ptr, ...) @fprintf(ptr noundef %24, ptr noundef @.str.15) #7
  call void @exit(i32 noundef 1) #8
  unreachable

if.end41:                                         ; preds = %land.lhs.true35, %lor.lhs.false23
  %call42 = call ptr @__ctype_b_loc() #6
  %25 = load ptr, ptr %call42, align 8
  %26 = load i8, ptr %h, align 1
  %conv43 = sext i8 %26 to i32
  %idxprom44 = sext i32 %conv43 to i64
  %arrayidx45 = getelementptr inbounds i16, ptr %25, i64 %idxprom44
  %27 = load i16, ptr %arrayidx45, align 2
  %conv46 = zext i16 %27 to i32
  %and47 = and i32 %conv46, 2048
  %tobool48 = icmp ne i32 %and47, 0
  br i1 %tobool48, label %cond.true, label %cond.false

cond.true:                                        ; preds = %if.end41
  %28 = load i8, ptr %h, align 1
  %conv49 = sext i8 %28 to i32
  %sub = sub nsw i32 %conv49, 48
  br label %cond.end

cond.false:                                       ; preds = %if.end41
  %29 = load i8, ptr %h, align 1
  %conv50 = sext i8 %29 to i32
  %sub51 = sub nsw i32 %conv50, 97
  %add = add nsw i32 %sub51, 10
  br label %cond.end

cond.end:                                         ; preds = %cond.false, %cond.true
  %cond = phi i32 [ %sub, %cond.true ], [ %add, %cond.false ]
  %shl = shl i32 %cond, 4
  %call52 = call ptr @__ctype_b_loc() #6
  %30 = load ptr, ptr %call52, align 8
  %31 = load i8, ptr %l, align 1
  %conv53 = sext i8 %31 to i32
  %idxprom54 = sext i32 %conv53 to i64
  %arrayidx55 = getelementptr inbounds i16, ptr %30, i64 %idxprom54
  %32 = load i16, ptr %arrayidx55, align 2
  %conv56 = zext i16 %32 to i32
  %and57 = and i32 %conv56, 2048
  %tobool58 = icmp ne i32 %and57, 0
  br i1 %tobool58, label %cond.true59, label %cond.false62

cond.true59:                                      ; preds = %cond.end
  %33 = load i8, ptr %l, align 1
  %conv60 = sext i8 %33 to i32
  %sub61 = sub nsw i32 %conv60, 48
  br label %cond.end66

cond.false62:                                     ; preds = %cond.end
  %34 = load i8, ptr %l, align 1
  %conv63 = sext i8 %34 to i32
  %sub64 = sub nsw i32 %conv63, 97
  %add65 = add nsw i32 %sub64, 10
  br label %cond.end66

cond.end66:                                       ; preds = %cond.false62, %cond.true59
  %cond67 = phi i32 [ %sub61, %cond.true59 ], [ %add65, %cond.false62 ]
  %add68 = add nsw i32 %shl, %cond67
  %conv69 = trunc i32 %add68 to i8
  store i8 %conv69, ptr %c, align 1
  %35 = load ptr, ptr %ret, align 8
  %call70 = call ptr @hi_sdscatlen(ptr noundef %35, ptr noundef %c, i64 noundef 1)
  store ptr %call70, ptr %ret, align 8
  %36 = load ptr, ptr %curr, align 8
  %incdec.ptr71 = getelementptr inbounds i8, ptr %36, i32 1
  store ptr %incdec.ptr71, ptr %curr, align 8
  br label %if.end74

if.else:                                          ; preds = %while.body
  %37 = load ptr, ptr %ret, align 8
  %38 = load ptr, ptr %curr, align 8
  %incdec.ptr72 = getelementptr inbounds i8, ptr %38, i32 1
  store ptr %incdec.ptr72, ptr %curr, align 8
  %call73 = call ptr @hi_sdscatlen(ptr noundef %37, ptr noundef %38, i64 noundef 1)
  store ptr %call73, ptr %ret, align 8
  br label %if.end74

if.end74:                                         ; preds = %if.else, %cond.end66
  br label %while.cond, !llvm.loop !8

while.end:                                        ; preds = %while.cond
  %39 = load ptr, ptr %ret, align 8
  ret ptr %39
}