; Function Attrs: nounwind uwtable
define internal fastcc ptr @percentDecode(ptr noundef %pe, i64 noundef %len) unnamed_addr #1 {
entry:
  %c = alloca i8, align 1
  %add.ptr = getelementptr inbounds i8, ptr %pe, i64 %len
  %call = tail call ptr @hi_sdsempty() #11
  %cmp27 = icmp sgt i64 %len, 0
  br i1 %cmp27, label %while.body.lr.ph, label %while.end

while.body.lr.ph:                                 ; preds = %entry
  %sub.ptr.lhs.cast = ptrtoint ptr %add.ptr to i64
  br label %while.body

while.body:                                       ; preds = %while.body.lr.ph, %if.end74
  %ret.029 = phi ptr [ %call, %while.body.lr.ph ], [ %ret.1, %if.end74 ]
  %curr.028 = phi ptr [ %pe, %while.body.lr.ph ], [ %curr.1, %if.end74 ]
  %0 = load i8, ptr %curr.028, align 1
  %cmp1 = icmp eq i8 %0, 37
  br i1 %cmp1, label %if.then, label %if.else

if.then:                                          ; preds = %while.body
  %sub.ptr.rhs.cast = ptrtoint ptr %curr.028 to i64
  %sub.ptr.sub = sub i64 %sub.ptr.lhs.cast, %sub.ptr.rhs.cast
  %cmp3 = icmp slt i64 %sub.ptr.sub, 2
  br i1 %cmp3, label %if.then5, label %if.end

if.then5:                                         ; preds = %if.then
  %1 = load ptr, ptr @stderr, align 8
  %2 = call i64 @fwrite(ptr nonnull @.str.14, i64 24, i64 1, ptr %1) #13
  call void @exit(i32 noundef 1) #14
  unreachable

if.end:                                           ; preds = %if.then
  %incdec.ptr = getelementptr inbounds i8, ptr %curr.028, i64 1
  %3 = load i8, ptr %incdec.ptr, align 1
  %conv7 = sext i8 %3 to i32
  %call8 = call i32 @tolower(i32 noundef %conv7) #15
  %call14 = tail call ptr @__ctype_b_loc() #12
  %4 = load ptr, ptr %call14, align 8
  %sext = shl i32 %call8, 24
  %conv15 = ashr exact i32 %sext, 24
  %idxprom = sext i32 %conv15 to i64
  %arrayidx = getelementptr inbounds i16, ptr %4, i64 %idxprom
  %5 = load i16, ptr %arrayidx, align 2
  %6 = and i16 %5, 2048
  %tobool.not = icmp ne i16 %6, 0
  %7 = add nsw i32 %conv15, -97
  %or.cond = icmp ult i32 %7, 6
  %or.cond23 = select i1 %tobool.not, i1 true, i1 %or.cond
  br i1 %or.cond23, label %lor.lhs.false23, label %if.then39

lor.lhs.false23:                                  ; preds = %if.end
  %incdec.ptr10 = getelementptr inbounds i8, ptr %curr.028, i64 2
  %8 = load i8, ptr %incdec.ptr10, align 1
  %conv11 = sext i8 %8 to i32
  %call12 = call i32 @tolower(i32 noundef %conv11) #15
  %sext22 = shl i32 %call12, 24
  %conv25 = ashr exact i32 %sext22, 24
  %idxprom26 = sext i32 %conv25 to i64
  %arrayidx27 = getelementptr inbounds i16, ptr %4, i64 %idxprom26
  %9 = load i16, ptr %arrayidx27, align 2
  %10 = and i16 %9, 2048
  %tobool30.not = icmp ne i16 %10, 0
  %11 = add nsw i32 %conv25, -97
  %or.cond1 = icmp ult i32 %11, 6
  %or.cond24 = select i1 %tobool30.not, i1 true, i1 %or.cond1
  br i1 %or.cond24, label %if.end41, label %if.then39

if.then39:                                        ; preds = %lor.lhs.false23, %if.end
  %12 = load ptr, ptr @stderr, align 8
  %13 = call i64 @fwrite(ptr nonnull @.str.15, i64 34, i64 1, ptr %12) #13
  call void @exit(i32 noundef 1) #14
  unreachable

if.end41:                                         ; preds = %lor.lhs.false23
  %tobool48.not = icmp eq i16 %6, 0
  %cond.v = select i1 %tobool48.not, i32 -87, i32 -48
  %cond = add nsw i32 %cond.v, %conv15
  %shl = shl nsw i32 %cond, 4
  %tobool58.not = icmp eq i16 %10, 0
  %cond67.v = select i1 %tobool58.not, i32 169, i32 208
  %cond67 = add i32 %call12, %shl
  %add68 = add i32 %cond67, %cond67.v
  %conv69 = trunc i32 %add68 to i8
  store i8 %conv69, ptr %c, align 1
  %call70 = call ptr @hi_sdscatlen(ptr noundef %ret.029, ptr noundef nonnull %c, i64 noundef 1) #11
  %incdec.ptr71 = getelementptr inbounds i8, ptr %curr.028, i64 3
  br label %if.end74

if.else:                                          ; preds = %while.body
  %incdec.ptr72 = getelementptr inbounds i8, ptr %curr.028, i64 1
  %call73 = call ptr @hi_sdscatlen(ptr noundef %ret.029, ptr noundef nonnull %curr.028, i64 noundef 1) #11
  br label %if.end74

if.end74:                                         ; preds = %if.else, %if.end41
  %curr.1 = phi ptr [ %incdec.ptr71, %if.end41 ], [ %incdec.ptr72, %if.else ]
  %ret.1 = phi ptr [ %call70, %if.end41 ], [ %call73, %if.else ]
  %cmp = icmp ult ptr %curr.1, %add.ptr
  br i1 %cmp, label %while.body, label %while.end, !llvm.loop !8

while.end:                                        ; preds = %if.end74, %entry
  %ret.0.lcssa = phi ptr [ %call, %entry ], [ %ret.1, %if.end74 ]
  ret ptr %ret.0.lcssa
}